{
  "main_library": {
    "exported_symbols": [
      {
        "text": {
          "global": [
            "_getNumDataObjects",
            "_getNumNodes",
            "_getWrapperType",
            "_getError",
            "_getNodeId",
            "_getHash",
            "_deInitOpaqueNode",
            "_getDllVersionCounter",
            "_initOpaqueNode",
            "_isThirdPartyNode",
            "_clearError"
          ]
        }
      },
      {
        "data": {
          "weak": [
            "__ZTINSt3__117bad_function_callE",
            "__ZTINSt3__110__function6__baseIFivEEE",
            "__ZTINSt3__110__function6__baseIFvvEEE",
            "__ZTINSt3__110__function6__baseIFffEEE",
            "__ZTINSt3__110__function6__baseIFddEEE",
            "__ZTINSt3__110__function6__baseIFdmEEE",
            "__ZTSNSt3__110__function6__baseIFfmEEE",
            "__ZTSNSt3__110__function6__baseIFdmEEE",
            "__ZTINSt3__110__function6__baseIFfmEEE",
            "__ZTINSt3__110__function6__baseIFviEEE",
            "__ZTSNSt3__110__function6__baseIFffEEE",
            "__ZTSNSt3__110__function6__baseIFvbEEE",
            "__ZTSNSt3__115basic_stringbufIcNS_11char_traitsIcEENS_9allocatorIcEEEE",
            "__ZTINSt3__119basic_ostringstreamIcNS_11char_traitsIcEENS_9allocatorIcEEEE",
            "__ZTSNSt3__110__function6__baseIFvvEEE",
            "__ZTSNSt3__110__function6__baseIFivEEE",
            "__ZTINSt3__110__function6__baseIFbiiEEE",
            "__ZTSNSt3__110__function6__baseIFddEEE",
            "__ZTSNSt3__110__function6__baseIFbiiEEE",
            "__ZTINSt3__110__function6__baseIFvbEEE",
            "__ZTSNSt3__117bad_function_callE",
            "__ZTSNSt3__110__function6__baseIFviEEE",
            "__ZTINSt3__115basic_stringbufIcNS_11char_traitsIcEENS_9allocatorIcEEEE",
            "__ZTSNSt3__119basic_ostringstreamIcNS_11char_traitsIcEENS_9allocatorIcEEEE"
          ]
        },
        "targets": [
          "x86_64-macos"
        ]
      }
    ],
    "flags": [
      {
        "attributes": [
          "not_app_extension_safe"
        ]
      }
    ],
    "install_names": [
      {
        "name": "/usr/local/lib/Quetzalcoatl_EX.dylib"
      }
    ],
    "target_info": [
      {
        "min_deployment": "10.11",
        "target": "x86_64-macos"
      },
      {
        "min_deployment": "11",
        "target": "arm64-macos"
      }
    ]
  },
  "tapi_tbd_version": 5
}
